; Function Attrs: nofree norecurse nosync nounwind memory(argmem: readwrite) uwtable
define void @ldchar(ptr noundef readonly captures(none) %0, i32 noundef %1, ptr noundef writeonly captures(none) %2) local_unnamed_addr #12 {
  br label %4

4:                                                ; preds = %4, %3
  %.0.in.i = phi i32 [ %1, %3 ], [ %.0.i, %4 ]
  %.0.i = add i32 %.0.in.i, -1
  %5 = sext i32 %.0.i to i64
  %6 = getelementptr inbounds i8, ptr %0, i64 %5
  %7 = load i8, ptr %6, align 1
  %cond.i = icmp eq i8 %7, 32
  br i1 %cond.i, label %4, label %byleng.exit

byleng.exit:                                      ; preds = %4
  %8 = sext i32 %.0.in.i to i64
  tail call void @llvm.memmove.p0.p0.i64(ptr align 1 %2, ptr nonnull align 1 %0, i64 %8, i1 false)
  %9 = getelementptr inbounds i8, ptr %2, i64 %8
  store i8 0, ptr %9, align 1
  ret void
}